	.file	"MM2.c"
	.text
.Ltext0:
	.globl	drand48
	.type	drand48, @function
drand48:
.LFB27:
	.file 1 "MM2.c"
	.loc 1 48 0
	.cfi_startproc
	.loc 1 50 0
	movl	SEED(%rip), %edx
	movl	%edx, %eax
	andl	$1, %eax
	imull	$1588635695, %eax, %eax
	shrl	%edx
	imull	$1117695901, %edx, %edx
	subl	%edx, %eax
	movl	%eax, SEED(%rip)
	.loc 1 51 0
	movl	%eax, %eax
	cvtsi2sdq	%rax, %xmm0
	divsd	.LC0(%rip), %xmm0
	.loc 1 52 0
	ret
	.cfi_endproc
.LFE27:
	.size	drand48, .-drand48
	.globl	srand48
	.type	srand48, @function
srand48:
.LFB28:
	.loc 1 55 0
	.cfi_startproc
.LVL0:
	.loc 1 55 0
	testl	%edi, %edi
	je	.L4
	.loc 1 55 0 is_stmt 0 discriminator 1
	movl	%edi, SEED(%rip)
.L4:
	rep ret
	.cfi_endproc
.LFE28:
	.size	srand48, .-srand48
	.globl	mm2
	.type	mm2, @function
mm2:
.LFB29:
	.loc 1 70 0 is_stmt 1
	.cfi_startproc
.LVL1:
	pushq	%rbx
	.cfi_def_cfa_offset 16
	.cfi_offset 3, -16
	movq	%rdx, %rbx
.LVL2:
	.loc 1 76 0
	movl	$0, %edx
.LVL3:
	jmp	.L7
.LVL4:
.L10:
	.loc 1 76 0 is_stmt 0 discriminator 2
	movsd	(%r10,%r8), %xmm0
	mulsd	(%r9,%rax), %xmm0
	addsd	(%rcx,%rax), %xmm0
	movsd	%xmm0, (%rcx,%rax)
.LVL5:
	addq	$8, %rax
	.loc 1 75 0 is_stmt 1 discriminator 2
	cmpq	$16640, %rax
	jne	.L10
.LVL6:
	addq	$8, %r8
	addq	$16640, %r11
	.loc 1 74 0
	cmpq	$16640, %r8
	je	.L9
.L12:
.LVL7:
	.loc 1 76 0 discriminator 1
	movq	%r11, %r9
	movl	$0, %eax
	jmp	.L10
.LVL8:
.L9:
	addq	$16640, %rdx
	.loc 1 73 0
	cmpq	$34611200, %rdx
	je	.L6
.L7:
.LVL9:
	leaq	(%rbx,%rdx), %rcx
	leaq	(%rdi,%rdx), %r10
	movq	%rsi, %r11
	.loc 1 76 0 discriminator 1
	movl	$0, %r8d
	jmp	.L12
.LVL10:
.L6:
	.loc 1 80 0
	popq	%rbx
	.cfi_def_cfa_offset 8
.LVL11:
	ret
	.cfi_endproc
.LFE29:
	.size	mm2, .-mm2
	.globl	fillmatrix
	.type	fillmatrix, @function
fillmatrix:
.LFB30:
	.loc 1 84 0
	.cfi_startproc
.LVL12:
	pushq	%r13
	.cfi_def_cfa_offset 16
	.cfi_offset 13, -16
	pushq	%r12
	.cfi_def_cfa_offset 24
	.cfi_offset 12, -24
	pushq	%rbp
	.cfi_def_cfa_offset 32
	.cfi_offset 6, -32
	pushq	%rbx
	.cfi_def_cfa_offset 40
	.cfi_offset 3, -40
	movq	%rdi, %r13
.LVL13:
	.loc 1 90 0
	movl	$2080, %r12d
	jmp	.L15
.LVL14:
.L18:
	.loc 1 90 0 is_stmt 0 discriminator 2
	movl	$0, %eax
	call	drand48
.LVL15:
	movsd	%xmm0, 0(%rbp,%rbx)
.LVL16:
	addq	$8, %rbx
	.loc 1 89 0 is_stmt 1 discriminator 2
	cmpq	$16640, %rbx
	jne	.L18
.LVL17:
	addq	$16640, %r13
	.loc 1 88 0
	subl	$1, %r12d
.LVL18:
	je	.L14
.LVL19:
.L15:
	.loc 1 90 0 discriminator 1
	movq	%r13, %rbp
	movl	$0, %ebx
	jmp	.L18
.LVL20:
.L14:
	.loc 1 93 0
	popq	%rbx
	.cfi_def_cfa_offset 32
	popq	%rbp
	.cfi_def_cfa_offset 24
	popq	%r12
	.cfi_def_cfa_offset 16
.LVL21:
	popq	%r13
	.cfi_def_cfa_offset 8
	ret
	.cfi_endproc
.LFE30:
	.size	fillmatrix, .-fillmatrix
	.globl	zeromatrix
	.type	zeromatrix, @function
zeromatrix:
.LFB31:
	.loc 1 97 0
	.cfi_startproc
.LVL22:
	.loc 1 102 0
	movl	$2080, %ecx
	xorpd	%xmm0, %xmm0
	jmp	.L21
.LVL23:
.L24:
	.loc 1 102 0 is_stmt 0 discriminator 2
	movsd	%xmm0, (%rdx,%rax)
.LVL24:
	addq	$8, %rax
	.loc 1 101 0 is_stmt 1 discriminator 2
	cmpq	$16640, %rax
	jne	.L24
.LVL25:
	addq	$16640, %rdi
	.loc 1 100 0
	subl	$1, %ecx
.LVL26:
	je	.L20
.LVL27:
.L21:
	.loc 1 102 0 discriminator 1
	movq	%rdi, %rdx
	movl	$0, %eax
	jmp	.L24
.LVL28:
.L20:
	rep ret
	.cfi_endproc
.LFE31:
	.size	zeromatrix, .-zeromatrix
	.section	.rodata.str1.1,"aMS",@progbits,1
.LC2:
	.string	"%1.1f "
	.text
	.globl	printmatrix
	.type	printmatrix, @function
printmatrix:
.LFB32:
	.loc 1 109 0
	.cfi_startproc
.LVL29:
	pushq	%r13
	.cfi_def_cfa_offset 16
	.cfi_offset 13, -16
	pushq	%r12
	.cfi_def_cfa_offset 24
	.cfi_offset 12, -24
	pushq	%rbp
	.cfi_def_cfa_offset 32
	.cfi_offset 6, -32
	pushq	%rbx
	.cfi_def_cfa_offset 40
	.cfi_offset 3, -40
	subq	$8, %rsp
	.cfi_def_cfa_offset 48
	movq	%rdi, %r13
.LVL30:
	.loc 1 114 0
	movl	$2080, %r12d
	jmp	.L26
.LVL31:
.L29:
.LBB10:
.LBB11:
	.file 2 "/usr/include/x86_64-linux-gnu/bits/stdio2.h"
	.loc 2 104 0 discriminator 2
	movsd	0(%rbp,%rbx), %xmm0
	movl	$.LC2, %esi
	movl	$1, %edi
	movl	$1, %eax
	call	__printf_chk
.LVL32:
	addq	$8, %rbx
.LBE11:
.LBE10:
	.loc 1 113 0 discriminator 2
	cmpq	$16640, %rbx
	jne	.L29
.LVL33:
.LBB12:
.LBB13:
	.loc 2 104 0
	movl	$10, %edi
	call	putchar
.LVL34:
	addq	$16640, %r13
.LBE13:
.LBE12:
	.loc 1 112 0
	subl	$1, %r12d
.LVL35:
	je	.L25
.LVL36:
.L26:
	.loc 1 114 0 discriminator 1
	movq	%r13, %rbp
	movl	$0, %ebx
	jmp	.L29
.LVL37:
.L25:
	.loc 1 118 0
	addq	$8, %rsp
	.cfi_def_cfa_offset 40
	popq	%rbx
	.cfi_def_cfa_offset 32
	popq	%rbp
	.cfi_def_cfa_offset 24
	popq	%r12
	.cfi_def_cfa_offset 16
.LVL38:
	popq	%r13
	.cfi_def_cfa_offset 8
	ret
	.cfi_endproc
.LFE32:
	.size	printmatrix, .-printmatrix
	.section	.rodata.str1.1
.LC3:
	.string	"Initialisation: %ld\n"
.LC6:
	.string	"mm2: %f s, %f MFLOPS\n"
	.text
	.globl	main
	.type	main, @function
main:
.LFB33:
	.loc 1 121 0
	.cfi_startproc
	pushq	%rbx
	.cfi_def_cfa_offset 16
	.cfi_offset 3, -16
	.loc 1 126 0
	call	clock
.LVL39:
	movq	%rax, %rbx
.LVL40:
.LBB20:
.LBB21:
	.loc 1 55 0
	movl	$8897, SEED(%rip)
.LBE21:
.LBE20:
	.loc 1 129 0
	movl	$A, %edi
	movl	$0, %eax
.LVL41:
	call	fillmatrix
.LVL42:
	.loc 1 130 0
	movl	$B, %edi
	movl	$0, %eax
	call	fillmatrix
.LVL43:
	.loc 1 132 0
	call	clock
.LVL44:
	subq	%rbx, %rax
	movq	%rax, %rdx
.LBB22:
.LBB23:
	.loc 2 104 0
	movl	$.LC3, %esi
	movl	$1, %edi
	movl	$0, %eax
	call	__printf_chk
.LVL45:
.LBE23:
.LBE22:
	.loc 1 133 0
	call	clock
.LVL46:
	.loc 1 143 0
	movl	$C, %edi
	movl	$0, %eax
	call	zeromatrix
.LVL47:
	.loc 1 144 0
	call	clock
.LVL48:
	movq	%rax, %rbx
.LVL49:
	.loc 1 145 0
	movl	$C, %edx
	movl	$B, %esi
	movl	$A, %edi
	movl	$0, %eax
.LVL50:
	call	mm2
.LVL51:
	.loc 1 146 0
	call	clock
.LVL52:
	subq	%rbx, %rax
	cvtsi2sdq	%rax, %xmm0
	movsd	.LC4(%rip), %xmm2
	divsd	%xmm2, %xmm0
.LVL53:
	.loc 1 147 0
	movsd	.LC5(%rip), %xmm1
	divsd	%xmm0, %xmm1
.LVL54:
.LBB24:
.LBB25:
	.loc 2 104 0
	divsd	%xmm2, %xmm1
.LVL55:
	movl	$.LC6, %esi
	movl	$1, %edi
	movl	$2, %eax
	call	__printf_chk
.LVL56:
.LBE25:
.LBE24:
	.loc 1 155 0
	movl	$0, %eax
	popq	%rbx
	.cfi_def_cfa_offset 8
.LVL57:
	ret
	.cfi_endproc
.LFE33:
	.size	main, .-main
	.data
	.align 4
	.type	SEED, @object
	.size	SEED, 4
SEED:
	.long	93186752
	.comm	C,34611200,32
	.comm	B,34611200,32
	.comm	A,34611200,32
	.section	.rodata.cst8,"aM",@progbits,8
	.align 8
.LC0:
	.long	4284481536
	.long	1106247679
	.align 8
.LC4:
	.long	0
	.long	1093567616
	.align 8
.LC5:
	.long	0
	.long	1108394756
	.text
.Letext0:
	.file 3 "/usr/lib/gcc/x86_64-linux-gnu/4.8/include/stddef.h"
	.file 4 "/usr/include/x86_64-linux-gnu/bits/types.h"
	.file 5 "/usr/include/libio.h"
	.file 6 "/usr/include/time.h"
	.file 7 "/usr/include/stdio.h"
	.file 8 "<built-in>"
	.section	.note.GNU-stack,"",@progbits
